; Function Attrs: nofree norecurse nosync nounwind memory(argmem: readwrite) uwtable
define internal void @SDL_Convert21ToMono(ptr noundef writeonly captures(none) %0, ptr noundef readonly captures(none) %1, i32 noundef %2) #5 {
  %.not10 = icmp eq i32 %2, 0
  br i1 %.not10, label %._crit_edge, label %.lr.ph

.lr.ph:                                           ; preds = %3, %.lr.ph
  %.013 = phi i32 [ %12, %.lr.ph ], [ %2, %3 ]
  %.0812 = phi ptr [ %14, %.lr.ph ], [ %0, %3 ]
  %.0911 = phi ptr [ %13, %.lr.ph ], [ %1, %3 ]
  %4 = load float, ptr %.0911, align 4
  %5 = getelementptr inbounds nuw i8, ptr %.0911, i64 4
  %6 = load float, ptr %5, align 4
  %7 = fmul float %6, 0x3FD5555560000000
  %8 = tail call float @llvm.fmuladd.f32(float %4, float 0x3FD5555560000000, float %7)
  %9 = getelementptr inbounds nuw i8, ptr %.0911, i64 8
  %10 = load float, ptr %9, align 4
  %11 = tail call float @llvm.fmuladd.f32(float %10, float 0x3FD5555560000000, float %8)
  store float %11, ptr %.0812, align 4
  %12 = add nsw i32 %.013, -1
  %13 = getelementptr inbounds nuw i8, ptr %.0911, i64 12
  %14 = getelementptr inbounds nuw i8, ptr %.0812, i64 4
  %.not = icmp eq i32 %12, 0
  br i1 %.not, label %._crit_edge, label %.lr.ph, !llvm.loop !64

._crit_edge:                                      ; preds = %.lr.ph, %3
  ret void
}